target datalayout = "e-m:e-p270:32:32-p271:32:32-p272:64:64-i64:64-i128:128-f80:128-n8:16:32:64-S128"
target triple = "x86_64-pc-linux-gnu"

%struct.json_dumper = type { ptr, ptr, i32, i32, i32, i32, [1100 x i8] }
%struct.__va_list_tag = type { i32, i32, ptr, ptr }

@dumper = internal global %struct.json_dumper zeroinitializer, align 8
@.str.136 = private unnamed_addr constant [5 x i8] c"\22%s\22\00", align 1

; Function Attrs: null_pointer_is_valid sspstrong uwtable
define internal void @sharkd_json_value_stringf(ptr noundef %0, ptr noundef %1, ...) #0 {
  %3 = alloca ptr, align 8
  %4 = alloca ptr, align 8
  %5 = alloca [1 x %struct.__va_list_tag], align 16
  %6 = alloca ptr, align 8
  store ptr %0, ptr %3, align 8
  store ptr %1, ptr %4, align 8
  %7 = load ptr, ptr %3, align 8
  %8 = icmp ne ptr %7, null
  br i1 %8, label %9, label %11

9:                                                ; preds = %2
  %10 = load ptr, ptr %3, align 8
  call void @json_dumper_set_member_name(ptr noundef @dumper, ptr noundef %10)
  br label %11

11:                                               ; preds = %9, %2
  call void @llvm.lifetime.start.p0(i64 24, ptr %5) #21
  %12 = getelementptr inbounds [1 x %struct.__va_list_tag], ptr %5, i64 0, i64 0
  call void @llvm.va_start.p0(ptr %12)
  call void @llvm.lifetime.start.p0(i64 8, ptr %6) #21
  %13 = load ptr, ptr %4, align 8
  %14 = call noalias ptr (ptr, ptr, ...) @wmem_strdup_printf(ptr noundef null, ptr noundef @.str.136, ptr noundef %13)
  store ptr %14, ptr %6, align 8
  %15 = load ptr, ptr %6, align 8
  %16 = getelementptr inbounds [1 x %struct.__va_list_tag], ptr %5, i64 0, i64 0
  call void @json_dumper_value_va_list(ptr noundef @dumper, ptr noundef %15, ptr noundef %16)
  %17 = load ptr, ptr %6, align 8
  call void @g_free(ptr noundef %17)
  %18 = getelementptr inbounds [1 x %struct.__va_list_tag], ptr %5, i64 0, i64 0
  call void @llvm.va_end.p0(ptr %18)
  call void @llvm.lifetime.end.p0(i64 8, ptr %6) #21
  call void @llvm.lifetime.end.p0(i64 24, ptr %5) #21
  ret void
}