; Function Attrs: null_pointer_is_valid sspstrong uwtable
define internal void @sharkd_json_value_stringf(ptr noundef %0, ptr noundef %1, ...) unnamed_addr #0 {
  %3 = alloca [1 x %struct.__va_list_tag], align 16
  %.not = icmp eq ptr %0, null
  br i1 %.not, label %5, label %4

4:                                                ; preds = %2
  tail call void @json_dumper_set_member_name(ptr noundef nonnull @dumper, ptr noundef nonnull %0)
  br label %5

5:                                                ; preds = %4, %2
  call void @llvm.lifetime.start.p0(i64 24, ptr nonnull %3) #17
  call void @llvm.va_start.p0(ptr nonnull %3)
  %6 = call noalias ptr (ptr, ptr, ...) @wmem_strdup_printf(ptr noundef null, ptr noundef nonnull @.str.136, ptr noundef %1)
  call void @json_dumper_value_va_list(ptr noundef nonnull @dumper, ptr noundef %6, ptr noundef nonnull %3)
  call void @g_free(ptr noundef %6)
  call void @llvm.va_end.p0(ptr nonnull %3)
  call void @llvm.lifetime.end.p0(i64 24, ptr nonnull %3) #17
  ret void
}